(dp1
S'001069'
p2
(lp3
(dp4
S'name'
p5
S'defect'
p6
sS'bbox'
p7
(lp8
I264
aI911
aI289
aI933
asa(dp9
g5
S'fine'
p10
sg7
(lp11
I356
aI973
aI383
aI1063
asa(dp12
g5
S'cfine'
p13
sg7
(lp14
I75
aI130
aI483
aI235
asasS'001063'
p15
(lp16
(dp17
g5
S'fine'
p18
sg7
(lp19
I162
aI963
aI186
aI1060
asa(dp20
g5
S'defect'
p21
sg7
(lp22
I256
aI472
aI296
aI523
asa(dp23
g5
S'defect'
p24
sg7
(lp25
I270
aI233
aI289
aI257
asa(dp26
g5
S'cfine'
p27
sg7
(lp28
I67
aI135
aI474
aI241
asasS'000098'
p29
(lp30
(dp31
g5
S'numerr'
p32
sg7
(lp33
I147
aI1179
aI242
aI1261
asa(dp34
g5
S'fine'
p35
sg7
(lp36
I121
aI966
aI153
aI1058
asa(dp37
g5
S'cfine'
p38
sg7
(lp39
I13
aI134
aI451
aI251
asasS'000095'
p40
(lp41
(dp42
g5
S'numerr'
p43
sg7
(lp44
I263
aI1313
aI313
aI1358
asa(dp45
g5
S'fine'
p46
sg7
(lp47
I359
aI970
aI388
aI1055
asa(dp48
g5
S'cfine'
p49
sg7
(lp50
I71
aI121
aI489
aI251
asasS'000312'
p51
(lp52
(dp53
g5
S'cdefect'
p54
sg7
(lp55
I114
aI430
aI546
aI559
asasS'000313'
p56
(lp57
(dp58
g5
S'cdefect'
p59
sg7
(lp60
I100
aI445
aI535
aI573
asasS'000093'
p61
(lp62
(dp63
g5
S'defect'
p64
sg7
(lp65
I208
aI435
aI304
aI561
asa(dp66
g5
S'cfine'
p67
sg7
(lp68
I66
aI130
aI484
aI237
asa(dp69
g5
S'fine'
p70
sg7
(lp71
I357
aI964
aI382
aI1060
asasS'000015'
p72
(lp73
(dp74
g5
S'cfine'
p75
sg7
(lp76
I98
aI467
aI532
aI570
asa(dp77
g5
S'defect'
p78
sg7
(lp79
I261
aI927
aI283
aI942
asasS'000014'
p80
(lp81
(dp82
g5
S'defect'
p83
sg7
(lp84
I254
aI402
aI313
aI460
asa(dp85
g5
S'cfine'
p86
sg7
(lp87
I61
aI124
aI483
aI234
asa(dp88
g5
S'fine'
p89
sg7
(lp90
I159
aI964
aI189
aI1058
asasS'000016'
p91
(lp92
(dp93
g5
S'defect'
p94
sg7
(lp95
I260
aI722
aI280
aI767
asa(dp96
g5
S'fine'
p97
sg7
(lp98
I156
aI957
aI183
aI1060
asa(dp99
g5
S'cfine'
p100
sg7
(lp101
I60
aI131
aI476
aI237
asasS'000011'
p102
(lp103
(dp104
g5
S'cfine'
p105
sg7
(lp106
I54
aI125
aI470
aI234
asa(dp107
g5
S'defect'
p108
sg7
(lp109
I262
aI996
aI288
aI1028
asa(dp110
g5
S'fine'
p111
sg7
(lp112
I151
aI954
aI183
aI1061
asasS'000013'
p113
(lp114
(dp115
g5
S'defect'
p116
sg7
(lp117
I233
aI1115
aI255
aI1167
asa(dp118
g5
S'fine'
p119
sg7
(lp120
I147
aI829
aI172
aI919
asa(dp121
g5
S'cfine'
p122
sg7
(lp123
I58
aI105
aI433
aI204
asasS'000012'
p124
(lp125
(dp126
g5
S'fine'
p127
sg7
(lp128
I157
aI952
aI188
aI1055
asa(dp129
g5
S'cfine'
p130
sg7
(lp131
I53
aI125
aI479
aI237
asasS'000140'
p132
(lp133
(dp134
g5
S'fine'
p135
sg7
(lp136
I313
aI969
aI339
aI1061
asa(dp137
g5
S'cfine'
p138
sg7
(lp139
I33
aI134
aI433
aI247
asasS'000307'
p140
(lp141
(dp142
g5
S'defect'
p143
sg7
(lp144
I115
aI593
aI167
aI651
asa(dp145
g5
S'fine'
p146
sg7
(lp147
I358
aI966
aI380
aI1049
asa(dp148
g5
S'cfine'
p149
sg7
(lp150
I63
aI120
aI474
aI238
asa(dp151
g5
S'defect'
p152
sg7
(lp153
I263
aI782
aI279
aI823
asasS'000148'
p154
(lp155
(dp156
g5
S'defect'
p157
sg7
(lp158
I324
aI696
aI355
aI734
asa(dp159
g5
S'cfine'
p160
sg7
(lp161
I122
aI454
aI532
aI557
asasS'001529'
p162
(lp163
(dp164
g5
S'cfine'
p165
sg7
(lp166
I50
aI190
aI449
aI281
asa(dp167
g5
S'fine'
p168
sg7
(lp169
I329
aI886
aI355
aI969
asa(dp170
g5
S'defect'
p171
sg7
(lp172
I235
aI770
aI276
aI801
asasS'001096'
p173
(lp174
(dp175
g5
S'defect'
p176
sg7
(lp177
I234
aI813
aI283
aI866
asa(dp178
g5
S'fine'
p179
sg7
(lp180
I156
aI966
aI184
aI1060
asa(dp181
g5
S'cfine'
p182
sg7
(lp183
I59
aI129
aI464
aI239
asasS'001090'
p184
(lp185
(dp186
g5
S'numerr'
p187
sg7
(lp188
I267
aI1169
aI312
aI1226
asa(dp189
g5
S'fine'
p190
sg7
(lp191
I356
aI969
aI383
aI1055
asa(dp192
g5
S'cfine'
p193
sg7
(lp194
I71
aI127
aI478
aI239
asasS'000222'
p195
(lp196
(dp197
g5
S'numerr'
p198
sg7
(lp199
I216
aI1127
aI269
aI1208
asa(dp200
g5
S'fine'
p201
sg7
(lp202
I354
aI970
aI384
aI1054
asa(dp203
g5
S'cfine'
p204
sg7
(lp205
I70
aI128
aI483
aI247
asasS'000220'
p206
(lp207
(dp208
g5
S'fine'
p209
sg7
(lp210
I312
aI963
aI341
aI1054
asa(dp211
g5
S'cfine'
p212
sg7
(lp213
I36
aI131
aI432
aI243
asasS'000221'
p214
(lp215
(dp216
g5
S'defect'
p217
sg7
(lp218
I241
aI795
aI270
aI849
asa(dp219
g5
S'cfine'
p220
sg7
(lp221
I57
aI122
aI470
aI234
asa(dp222
g5
S'fine'
p223
sg7
(lp224
I355
aI964
aI377
aI1053
asasS'001099'
p225
(lp226
(dp227
g5
S'cfine'
p228
sg7
(lp229
I52
aI130
aI462
aI241
asa(dp230
g5
S'fine'
p231
sg7
(lp232
I156
aI964
aI184
aI1063
asa(dp233
g5
S'numerr'
p234
sg7
(lp235
I259
aI1120
aI305
aI1175
asasS'000136'
p236
(lp237
(dp238
g5
S'defect'
p239
sg7
(lp240
I247
aI1158
aI282
aI1225
asa(dp241
g5
S'fine'
p242
sg7
(lp243
I160
aI960
aI190
aI1066
asa(dp244
g5
S'cfine'
p245
sg7
(lp246
I66
aI124
aI479
aI233
asasS'000137'
p247
(lp248
(dp249
g5
S'numerr'
p250
sg7
(lp251
I261
aI860
aI293
aI899
asa(dp252
g5
S'fine'
p253
sg7
(lp254
I375
aI880
aI399
aI969
asa(dp255
g5
S'cfine'
p256
sg7
(lp257
I83
aI187
aI494
aI295
asasS'000135'
p258
(lp259
(dp260
g5
S'defect'
p261
sg7
(lp262
I264
aI849
aI298
aI880
asa(dp263
g5
S'fine'
p264
sg7
(lp265
I355
aI960
aI380
aI1053
asa(dp266
g5
S'cfine'
p267
sg7
(lp268
I76
aI124
aI484
aI234
asasS'000131'
p269
(lp270
(dp271
g5
S'defect'
p272
sg7
(lp273
I269
aI1154
aI325
aI1235
asa(dp274
g5
S'fine'
p275
sg7
(lp276
I353
aI967
aI383
aI1059
asa(dp277
g5
S'cfine'
p278
sg7
(lp279
I63
aI133
aI482
aI234
asasS'001122'
p280
(lp281
(dp282
g5
S'defect'
p283
sg7
(lp284
I240
aI835
aI271
aI877
asa(dp285
g5
S'fine'
p286
sg7
(lp287
I353
aI966
aI380
aI1055
asa(dp288
g5
S'cfine'
p289
sg7
(lp290
I64
aI126
aI473
aI239
asasS'000036'
p291
(lp292
(dp293
g5
S'fine'
p294
sg7
(lp295
I312
aI966
aI341
aI1054
asa(dp296
g5
S'cfine'
p297
sg7
(lp298
I31
aI135
aI434
aI235
asasS'000035'
p299
(lp300
(dp301
g5
S'defect'
p302
sg7
(lp303
I256
aI941
aI304
aI996
asa(dp304
g5
S'cfine'
p305
sg7
(lp306
I55
aI125
aI467
aI240
asa(dp307
g5
S'fine'
p308
sg7
(lp309
I160
aI963
aI188
aI1049
asasS'000034'
p310
(lp311
(dp312
g5
S'defect'
p313
sg7
(lp314
I247
aI576
aI271
aI614
asa(dp315
g5
S'fine'
p316
sg7
(lp317
I328
aI835
aI353
aI911
asa(dp318
g5
S'cfine'
p319
sg7
(lp320
I56
aI116
aI447
aI201
asasS'000033'
p321
(lp322
(dp323
g5
S'fine'
p324
sg7
(lp325
I162
aI964
aI185
aI1055
asa(dp326
g5
S'defect'
p327
sg7
(lp328
I256
aI576
aI273
aI623
asa(dp329
g5
S'cfine'
p330
sg7
(lp331
I57
aI128
aI463
aI237
asasS'001088'
p332
(lp333
(dp334
g5
S'numerr'
p335
sg7
(lp336
I215
aI982
aI264
aI1138
asa(dp337
g5
S'numerr'
p338
sg7
(lp339
I215
aI1241
aI268
aI1360
asa(dp340
g5
S'numerr'
p341
sg7
(lp342
I295
aI1101
aI339
aI1191
asa(dp343
g5
S'numerr'
p344
sg7
(lp345
I146
aI1132
aI199
aI1163
asa(dp346
g5
S'fine'
p347
sg7
(lp348
I354
aI966
aI385
aI1061
asa(dp349
g5
S'cfine'
p350
sg7
(lp351
I75
aI123
aI484
aI238
asasS'000138'
p352
(lp353
(dp354
g5
S'numerr'
p355
sg7
(lp356
I197
aI886
aI216
aI966
asa(dp357
g5
S'defect'
p358
sg7
(lp359
I266
aI784
aI300
aI827
asa(dp360
g5
S'cfine'
p361
sg7
(lp362
I95
aI186
aI499
aI295
asasS'000139'
p363
(lp364
(dp365
g5
S'defect'
p366
sg7
(lp367
I229
aI833
aI270
aI893
asa(dp368
g5
S'fine'
p369
sg7
(lp370
I118
aI960
aI148
aI1059
asa(dp371
g5
S'cfine'
p372
sg7
(lp373
I29
aI131
aI438
aI241
asasS'000288'
p374
(lp375
(dp376
g5
S'fine'
p377
sg7
(lp378
I124
aI970
aI148
aI1055
asa(dp379
g5
S'cfine'
p380
sg7
(lp381
I29
aI134
aI432
aI243
asasS'000289'
p382
(lp383
(dp384
g5
S'defect'
p385
sg7
(lp386
I224
aI1346
aI250
aI1378
asa(dp387
g5
S'fine'
p388
sg7
(lp389
I118
aI969
aI148
aI1062
asa(dp390
g5
S'cfine'
p391
sg7
(lp392
I26
aI133
aI429
aI244
asasS'000286'
p393
(lp394
(dp395
g5
S'fine'
p396
sg7
(lp397
I160
aI960
aI188
aI1052
asa(dp398
g5
S'cfine'
p399
sg7
(lp400
I60
aI123
aI460
aI231
asasS'000287'
p401
(lp402
(dp403
g5
S'fine'
p404
sg7
(lp405
I165
aI960
aI188
aI1047
asa(dp406
g5
S'cfine'
p407
sg7
(lp408
I68
aI122
aI473
aI235
asasS'001500'
p409
(lp410
(dp411
g5
S'defect'
p412
sg7
(lp413
I239
aI657
aI298
aI699
asa(dp414
g5
S'fine'
p415
sg7
(lp416
I334
aI885
aI355
aI968
asa(dp417
g5
S'cfine'
p418
sg7
(lp419
I41
aI195
aI448
aI291
asasS'000205'
p420
(lp421
(dp422
g5
S'defect'
p423
sg7
(lp424
I199
aI589
aI225
aI640
asa(dp425
g5
S'fine'
p426
sg7
(lp427
I118
aI963
aI151
aI1057
asa(dp428
g5
S'cfine'
p429
sg7
(lp430
I21
aI128
aI421
aI240
asasS'000206'
p431
(lp432
(dp433
g5
S'defect'
p434
sg7
(lp435
I249
aI391
aI274
aI433
asa(dp436
g5
S'fine'
p437
sg7
(lp438
I329
aI834
aI352
aI906
asa(dp439
g5
S'cfine'
p440
sg7
(lp441
I59
aI106
aI439
aI199
asasS'000207'
p442
(lp443
(dp444
g5
S'defect'
p445
sg7
(lp446
I269
aI820
aI299
aI849
asa(dp447
g5
S'fine'
p448
sg7
(lp449
I361
aI963
aI387
aI1057
asa(dp450
g5
S'cfine'
p451
sg7
(lp452
I64
aI124
aI484
aI238
asasS'000208'
p453
(lp454
(dp455
g5
S'fine'
p456
sg7
(lp457
I162
aI963
aI189
aI1049
asa(dp458
g5
S'cfine'
p459
sg7
(lp460
I68
aI122
aI473
aI229
asasS'000209'
p461
(lp462
(dp463
g5
S'defect'
p464
sg7
(lp465
I264
aI793
aI287
aI837
asa(dp466
g5
S'cfine'
p467
sg7
(lp468
I54
aI128
aI466
aI238
asa(dp469
g5
S'fine'
p470
sg7
(lp471
I164
aI959
aI190
aI1056
asasS'000204'
p472
(lp473
(dp474
g5
S'defect'
p475
sg7
(lp476
I213
aI1289
aI271
aI1357
asa(dp477
g5
S'fine'
p478
sg7
(lp479
I310
aI957
aI342
aI1051
asa(dp480
g5
S'cfine'
p481
sg7
(lp482
I29
aI131
aI432
aI241
asasS'001134'
p483
(lp484
(dp485
g5
S'numerr'
p486
sg7
(lp487
I218
aI1088
aI274
aI1158
asa(dp488
g5
S'fine'
p489
sg7
(lp490
I357
aI976
aI384
aI1063
asa(dp491
g5
S'cfine'
p492
sg7
(lp493
I65
aI136
aI473
aI244
asasS'000044'
p494
(lp495
(dp496
g5
S'numerr'
p497
sg7
(lp498
I262
aI1229
aI326
aI1301
asa(dp499
g5
S'fine'
p500
sg7
(lp501
I354
aI967
aI383
aI1057
asa(dp502
g5
S'cfine'
p503
sg7
(lp504
I60
aI140
aI477
aI233
asasS'001100'
p505
(lp506
(dp507
g5
S'numerr'
p508
sg7
(lp509
I230
aI920
aI289
aI1042
asa(dp510
g5
S'fine'
p511
sg7
(lp512
I158
aI961
aI187
aI1058
asa(dp513
g5
S'cfine'
p514
sg7
(lp515
I62
aI129
aI468
aI239
asasS'001102'
p516
(lp517
(dp518
g5
S'numerr'
p519
sg7
(lp520
I265
aI1257
aI315
aI1332
asa(dp521
g5
S'fine'
p522
sg7
(lp523
I355
aI970
aI384
aI1061
asa(dp524
g5
S'cfine'
p525
sg7
(lp526
I65
aI133
aI475
aI242
asasS'000219'
p527
(lp528
(dp529
g5
S'fine'
p530
sg7
(lp531
I160
aI963
aI186
aI1060
asa(dp532
g5
S'cfine'
p533
sg7
(lp534
I54
aI87
aI462
aI228
asa(dp535
g5
S'defect'
p536
sg7
(lp537
I368
aI388
aI393
aI410
asasS'000218'
p538
(lp539
(dp540
g5
S'fine'
p541
sg7
(lp542
I318
aI967
aI342
aI1055
asa(dp543
g5
S'cfine'
p544
sg7
(lp545
I39
aI134
aI436
aI243
asasS'001510'
p546
(lp547
(dp548
g5
S'cfine'
p549
sg7
(lp550
I138
aI465
aI520
aI554
asa(dp551
g5
S'defect'
p552
sg7
(lp553
I317
aI941
aI337
aI980
asasS'000082'
p554
(lp555
(dp556
g5
S'defect'
p557
sg7
(lp558
I262
aI804
aI285
aI830
asa(dp559
g5
S'fine'
p560
sg7
(lp561
I357
aI970
aI383
aI1054
asa(dp562
g5
S'cfine'
p563
sg7
(lp564
I66
aI127
aI480
aI235
asasS'000185'
p565
(lp566
(dp567
g5
S'defect'
p568
sg7
(lp569
I225
aI1062
aI245
aI1118
asa(dp570
g5
S'fine'
p571
sg7
(lp572
I313
aI959
aI341
aI1057
asa(dp573
g5
S'cfine'
p574
sg7
(lp575
I31
aI134
aI437
aI246
asasS'001058'
p576
(lp577
(dp578
g5
S'defect'
p579
sg7
(lp580
I83
aI663
aI99
aI694
asa(dp581
g5
S'fine'
p582
sg7
(lp583
I355
aI973
aI381
aI1057
asa(dp584
g5
S'cfine'
p585
sg7
(lp586
I59
aI134
aI465
aI241
asasS'001112'
p587
(lp588
(dp589
g5
S'numerr'
p590
sg7
(lp591
I215
aI1038
aI273
aI1091
asa(dp592
g5
S'fine'
p593
sg7
(lp594
I355
aI970
aI385
aI1055
asa(dp595
g5
S'cfine'
p596
sg7
(lp597
I71
aI127
aI477
aI241
asasS'000067'
p598
(lp599
(dp600
g5
S'fine'
p601
sg7
(lp602
I163
aI963
aI191
aI1049
asa(dp603
g5
S'cfine'
p604
sg7
(lp605
I68
aI125
aI474
aI231
asasS'001117'
p606
(lp607
(dp608
g5
S'defect'
p609
sg7
(lp610
I253
aI810
aI270
aI857
asa(dp611
g5
S'fine'
p612
sg7
(lp613
I350
aI967
aI377
aI1060
asa(dp614
g5
S'cfine'
p615
sg7
(lp616
I58
aI124
aI464
aI239
asasS'001116'
p617
(lp618
(dp619
g5
S'defect'
p620
sg7
(lp621
I239
aI872
aI292
aI935
asa(dp622
g5
S'fine'
p623
sg7
(lp624
I352
aI970
aI380
aI1061
asa(dp625
g5
S'cfine'
p626
sg7
(lp627
I56
aI133
aI468
aI244
asasS'001114'
p628
(lp629
(dp630
g5
S'defect'
p631
sg7
(lp632
I261
aI757
aI314
aI863
asa(dp633
g5
S'fine'
p634
sg7
(lp635
I158
aI972
aI186
aI1063
asa(dp636
g5
S'defect'
p637
sg7
(lp638
I295
aI711
aI346
aI735
asa(dp639
g5
S'cfine'
p640
sg7
(lp641
I59
aI132
aI468
aI236
asasS'001119'
p642
(lp643
(dp644
g5
S'defect'
p645
sg7
(lp646
I259
aI767
aI280
aI822
asa(dp647
g5
S'fine'
p648
sg7
(lp649
I156
aI961
aI186
aI1055
asa(dp650
g5
S'cfine'
p651
sg7
(lp652
I64
aI127
aI470
aI238
asasS'001118'
p653
(lp654
(dp655
g5
S'defect'
p656
sg7
(lp657
I253
aI952
aI298
aI992
asa(dp658
g5
S'fine'
p659
sg7
(lp660
I356
aI966
aI381
aI1054
asa(dp661
g5
S'cfine'
p662
sg7
(lp663
I70
aI127
aI474
aI236
asasS'000068'
p664
(lp665
(dp666
g5
S'defect'
p667
sg7
(lp668
I243
aI648
aI267
aI684
asa(dp669
g5
S'fine'
p670
sg7
(lp671
I328
aI836
aI350
aI908
asa(dp672
g5
S'cfine'
p673
sg7
(lp674
I54
aI113
aI438
aI201
asasS'000069'
p675
(lp676
(dp677
g5
S'defect'
p678
sg7
(lp679
I221
aI618
aI262
aI670
asa(dp680
g5
S'fine'
p681
sg7
(lp682
I120
aI967
aI151
aI1051
asa(dp683
g5
S'cfine'
p684
sg7
(lp685
I25
aI137
aI441
aI240
asasS'000071'
p686
(lp687
(dp688
g5
S'defect'
p689
sg7
(lp690
I305
aI534
aI325
aI566
asa(dp691
g5
S'fine'
p692
sg7
(lp693
I359
aI967
aI384
aI1054
asa(dp694
g5
S'cfine'
p695
sg7
(lp696
I61
aI140
aI492
aI231
asasS'001680'
p697
(lp698
(dp699
g5
S'cfine'
p700
sg7
(lp701
I114
aI485
aI520
aI587
asasS'001687'
p702
(lp703
(dp704
g5
S'cfine'
p705
sg7
(lp706
I111
aI456
aI520
aI576
asasS'001683'
p707
(lp708
(dp709
g5
S'cfine'
p710
sg7
(lp711
I113
aI483
aI527
aI577
asasS'001682'
p712
(lp713
(dp714
g5
S'cfine'
p715
sg7
(lp716
I115
aI462
aI524
aI567
asasS'001681'
p717
(lp718
(dp719
g5
S'cfine'
p720
sg7
(lp721
I116
aI448
aI523
aI570
asasS'000070'
p722
(lp723
(dp724
g5
S'defect'
p725
sg7
(lp726
I314
aI888
aI332
aI932
asa(dp727
g5
S'cfine'
p728
sg7
(lp729
I107
aI459
aI549
aI565
asasS'000077'
p730
(lp731
(dp732
g5
S'defect'
p733
sg7
(lp734
I314
aI555
aI339
aI590
asa(dp735
g5
S'cfine'
p736
sg7
(lp737
I122
aI454
aI544
aI557
asasS'001686'
p738
(lp739
(dp740
g5
S'cfine'
p741
sg7
(lp742
I114
aI476
aI522
aI577
asa(dp743
g5
S'defect'
p744
sg7
(lp745
I261
aI756
aI327
aI826
asasS'001685'
p746
(lp747
(dp748
g5
S'cfine'
p749
sg7
(lp750
I111
aI466
aI520
aI574
asa(dp751
g5
S'numerr'
p752
sg7
(lp753
I399
aI878
aI448
aI911
asa(dp754
g5
S'numerr'
p755
sg7
(lp756
I343
aI949
aI426
aI1037
asa(dp757
g5
S'numerr'
p758
sg7
(lp759
I228
aI933
aI266
aI1035
asasS'001684'
p760
(lp761
(dp762
g5
S'cfine'
p763
sg7
(lp764
I79
aI379
aI487
aI489
asasS'000079'
p765
(lp766
(dp767
g5
S'defect'
p768
sg7
(lp769
I200
aI706
aI245
aI775
asa(dp770
g5
S'fine'
p771
sg7
(lp772
I125
aI962
aI151
aI1054
asa(dp773
g5
S'cfine'
p774
sg7
(lp775
I21
aI132
aI441
aI232
asasS'000078'
p776
(lp777
(dp778
g5
S'defect'
p779
sg7
(lp780
I208
aI996
aI241
aI1037
asa(dp781
g5
S'fine'
p782
sg7
(lp783
I120
aI969
aI144
aI1054
asa(dp784
g5
S'cfine'
p785
sg7
(lp786
I22
aI138
aI429
aI250
asasS'001688'
p787
(lp788
(dp789
g5
S'cfine'
p790
sg7
(lp791
I112
aI469
aI522
aI576
asa(dp792
g5
S'numerr'
p793
sg7
(lp794
I401
aI878
aI449
aI906
asa(dp795
g5
S'numerr'
p796
sg7
(lp797
I232
aI930
aI263
aI1037
asa(dp798
g5
S'numerr'
p799
sg7
(lp800
I344
aI950
aI426
aI1040
asasS'001207'
p801
(lp802
(dp803
g5
S'fine'
p804
sg7
(lp805
I162
aI967
aI189
aI1063
asa(dp806
g5
S'cfine'
p807
sg7
(lp808
I64
aI129
aI470
aI241
asasS'001206'
p809
(lp810
(dp811
g5
S'fine'
p812
sg7
(lp813
I152
aI972
aI183
aI1063
asa(dp814
g5
S'cfine'
p815
sg7
(lp816
I53
aI132
aI461
aI247
asasS'001205'
p817
(lp818
(dp819
g5
S'fine'
p820
sg7
(lp821
I159
aI966
aI189
aI1064
asa(dp822
g5
S'cfine'
p823
sg7
(lp824
I70
aI127
aI478
aI242
asasS'001204'
p825
(lp826
(dp827
g5
S'fine'
p828
sg7
(lp829
I159
aI967
aI181
aI1057
asa(dp830
g5
S'cfine'
p831
sg7
(lp832
I61
aI133
aI468
aI245
asasS'001085'
p833
(lp834
(dp835
g5
S'defect'
p836
sg7
(lp837
I268
aI622
aI284
aI654
asa(dp838
g5
S'fine'
p839
sg7
(lp840
I360
aI965
aI387
aI1057
asa(dp841
g5
S'cfine'
p842
sg7
(lp843
I81
aI127
aI484
aI239
asasS'001084'
p844
(lp845
(dp846
g5
S'defect'
p847
sg7
(lp848
I258
aI742
aI277
aI808
asa(dp849
g5
S'fine'
p850
sg7
(lp851
I355
aI967
aI383
aI1052
asa(dp852
g5
S'cfine'
p853
sg7
(lp854
I65
aI129
aI471
aI241
asasS'001075'
p855
(lp856
(dp857
g5
S'defect'
p858
sg7
(lp859
I377
aI472
aI395
aI504
asa(dp860
g5
S'fine'
p861
sg7
(lp862
I158
aI973
aI184
aI1060
asa(dp863
g5
S'cfine'
p864
sg7
(lp865
I62
aI129
aI470
aI238
asasS'001077'
p866
(lp867
(dp868
g5
S'numerr'
p869
sg7
(lp870
I271
aI1224
aI320
aI1302
asa(dp871
g5
S'fine'
p872
sg7
(lp873
I161
aI970
aI184
aI1070
asa(dp874
g5
S'cfine'
p875
sg7
(lp876
I61
aI130
aI471
aI241
asasS'001676'
p877
(lp878
(dp879
g5
S'cfine'
p880
sg7
(lp881
I114
aI474
aI522
aI571
asasS'001674'
p882
(lp883
(dp884
g5
S'cfine'
p885
sg7
(lp886
I118
aI476
aI527
aI571
asasS'001675'
p887
(lp888
(dp889
g5
S'cfine'
p890
sg7
(lp891
I113
aI479
aI524
aI577
asasS'001672'
p892
(lp893
(dp894
g5
S'cfine'
p895
sg7
(lp896
I112
aI479
aI524
aI576
asasS'001673'
p897
(lp898
(dp899
g5
S'cfine'
p900
sg7
(lp901
I115
aI482
aI523
aI580
asasS'000080'
p902
(lp903
(dp904
g5
S'defect'
p905
sg7
(lp906
I262
aI891
aI318
aI935
asa(dp907
g5
S'fine'
p908
sg7
(lp909
I160
aI966
aI187
aI1064
asa(dp910
g5
S'cfine'
p911
sg7
(lp912
I48
aI128
aI483
aI240
asasS'000081'
p913
(lp914
(dp915
g5
S'fine'
p916
sg7
(lp917
I310
aI961
aI339
aI1057
asa(dp918
g5
S'defect'
p919
sg7
(lp920
I221
aI770
aI239
aI840
asa(dp921
g5
S'cfine'
p922
sg7
(lp923
I22
aI144
aI437
aI241
asasS'000006'
p924
(lp925
(dp926
g5
S'cfine'
p927
sg7
(lp928
I26
aI140
aI429
aI240
asa(dp929
g5
S'defect'
p930
sg7
(lp931
I218
aI907
aI267
aI961
asa(dp932
g5
S'fine'
p933
sg7
(lp934
I123
aI960
aI148
aI1052
asasS'000007'
p935
(lp936
(dp937
g5
S'defect'
p938
sg7
(lp939
I226
aI528
aI263
aI594
asa(dp940
g5
S'cfine'
p941
sg7
(lp942
I51
aI103
aI438
aI203
asa(dp943
g5
S'fine'
p944
sg7
(lp945
I146
aI830
aI172
aI919
asasS'000004'
p946
(lp947
(dp948
g5
S'cfine'
p949
sg7
(lp950
I32
aI140
aI427
aI247
asa(dp951
g5
S'fine'
p952
sg7
(lp953
I120
aI964
aI150
aI1058
asasS'000005'
p954
(lp955
(dp956
g5
S'cfine'
p957
sg7
(lp958
I44
aI128
aI463
aI230
asa(dp959
g5
S'defect'
p960
sg7
(lp961
I201
aI781
aI282
aI867
asa(dp962
g5
S'fine'
p963
sg7
(lp964
I156
aI963
aI183
aI1057
asa(dp965
g5
S'defect'
p966
sg7
(lp967
I336
aI752
aI374
aI782
asasS'001082'
p968
(lp969
(dp970
g5
S'defect'
p971
sg7
(lp972
I259
aI1298
aI286
aI1373
asa(dp973
g5
S'fine'
p974
sg7
(lp975
I363
aI973
aI386
aI1061
asa(dp976
g5
S'cfine'
p977
sg7
(lp978
I73
aI130
aI484
aI235
asasS'000060'
p979
(lp980
(dp981
g5
S'fine'
p982
sg7
(lp983
I187
aI881
aI209
aI966
asa(dp984
g5
S'defect'
p985
sg7
(lp986
I267
aI540
aI308
aI644
asa(dp987
g5
S'cfine'
p988
sg7
(lp989
I89
aI194
aI510
aI297
asas.